target datalayout = "e-m:e-p270:32:32-p271:32:32-p272:64:64-i64:64-i128:128-f80:128-n8:16:32:64-S128"
target triple = "x86_64-pc-linux-gnu"

%struct.expert_field = type { i32, i32 }

@hf_PCEPF_SUBOBJ = internal global i32 0, align 4
@hf_PCEPF_SUBOBJ_7F = internal global i32 0, align 4
@hf_PCEPF_SUBOBJ_LABEL_CONTROL = internal global i32 0, align 4
@hf_pcep_subobj_label_flags_gl = internal global i32 0, align 4
@hf_pcep_subobj_label_control_length = internal global i32 0, align 4
@hf_pcep_subobj_label_control_u = internal global i32 0, align 4
@hf_pcep_subobj_label_control_reserved = internal global i32 0, align 4
@hf_pcep_subobj_label_control_c_type = internal global i32 0, align 4
@hf_pcep_subobj_label_control_label = internal global i32 0, align 4
@hf_pcep_subobj_label_control_flags = internal global i32 0, align 4
@hf_pcep_subobj_label_control_l = internal global i32 0, align 4
@ei_pcep_subobject_bad_length = internal global %struct.expert_field zeroinitializer, align 4
@ei_pcep_non_defined_subobject = internal global %struct.expert_field zeroinitializer, align 4
@.str.723 = private unnamed_addr constant [38 x i8] c"Non defined subobject for this object\00", align 1
@.str.1158 = private unnamed_addr constant [43 x i8] c"Bad label control subobject: length %u < 5\00", align 1

; Function Attrs: null_pointer_is_valid sspstrong uwtable
define internal void @dissect_subobj_label_control(ptr noundef %0, ptr noundef %1, ptr noundef %2, i32 noundef %3, i32 noundef %4, i32 noundef %5, i32 noundef %6) #0 {
  %8 = alloca ptr, align 8
  %9 = alloca ptr, align 8
  %10 = alloca ptr, align 8
  %11 = alloca i32, align 4
  %12 = alloca i32, align 4
  %13 = alloca i32, align 4
  %14 = alloca i32, align 4
  %15 = alloca ptr, align 8
  %16 = alloca ptr, align 8
  %17 = alloca ptr, align 8
  %18 = alloca i32, align 4
  store ptr %0, ptr %8, align 8
  store ptr %1, ptr %9, align 8
  store ptr %2, ptr %10, align 8
  store i32 %3, ptr %11, align 4
  store i32 %4, ptr %12, align 4
  store i32 %5, ptr %13, align 4
  store i32 %6, ptr %14, align 4
  call void @llvm.lifetime.start.p0(i64 8, ptr %15) #4
  call void @llvm.lifetime.start.p0(i64 8, ptr %16) #4
  call void @llvm.lifetime.start.p0(i64 8, ptr %17) #4
  %19 = load ptr, ptr %8, align 8
  %20 = load i32, ptr @hf_PCEPF_SUBOBJ_LABEL_CONTROL, align 4
  %21 = load ptr, ptr %10, align 8
  %22 = load i32, ptr %11, align 4
  %23 = load i32, ptr %14, align 4
  %24 = call ptr @proto_tree_add_item(ptr noundef %19, i32 noundef %20, ptr noundef %21, i32 noundef %22, i32 noundef %23, i32 noundef 0)
  store ptr %24, ptr %17, align 8
  %25 = load ptr, ptr %17, align 8
  %26 = load i32, ptr %13, align 4
  %27 = call ptr @proto_item_add_subtree(ptr noundef %25, i32 noundef %26)
  store ptr %27, ptr %15, align 8
  %28 = load i32, ptr %14, align 4
  %29 = icmp ult i32 %28, 5
  br i1 %29, label %30, label %35

30:                                               ; preds = %7
  %31 = load ptr, ptr %9, align 8
  %32 = load ptr, ptr %17, align 8
  %33 = load i32, ptr %14, align 4
  %34 = call ptr (ptr, ptr, ptr, ptr, ...) @expert_add_info_format(ptr noundef %31, ptr noundef %32, ptr noundef @ei_pcep_subobject_bad_length, ptr noundef @.str.1158, i32 noundef %33)
  store i32 1, ptr %18, align 4
  br label %132

35:                                               ; preds = %7
  %36 = load i32, ptr %12, align 4
  switch i32 %36, label %127 [
    i32 7, label %37
    i32 29, label %37
    i32 8, label %80
    i32 30, label %80
  ]

37:                                               ; preds = %35, %35
  %38 = load ptr, ptr %15, align 8
  %39 = load i32, ptr @hf_pcep_subobj_label_control_l, align 4
  %40 = load ptr, ptr %10, align 8
  %41 = load i32, ptr %11, align 4
  %42 = call ptr @proto_tree_add_item(ptr noundef %38, i32 noundef %39, ptr noundef %40, i32 noundef %41, i32 noundef 1, i32 noundef 0)
  %43 = load ptr, ptr %15, align 8
  %44 = load i32, ptr @hf_PCEPF_SUBOBJ_7F, align 4
  %45 = load ptr, ptr %10, align 8
  %46 = load i32, ptr %11, align 4
  %47 = call ptr @proto_tree_add_item(ptr noundef %43, i32 noundef %44, ptr noundef %45, i32 noundef %46, i32 noundef 1, i32 noundef 0)
  %48 = load ptr, ptr %15, align 8
  %49 = load i32, ptr @hf_pcep_subobj_label_control_length, align 4
  %50 = load ptr, ptr %10, align 8
  %51 = load i32, ptr %11, align 4
  %52 = add i32 %51, 1
  %53 = call ptr @proto_tree_add_item(ptr noundef %48, i32 noundef %49, ptr noundef %50, i32 noundef %52, i32 noundef 1, i32 noundef 0)
  %54 = load ptr, ptr %15, align 8
  %55 = load i32, ptr @hf_pcep_subobj_label_control_u, align 4
  %56 = load ptr, ptr %10, align 8
  %57 = load i32, ptr %11, align 4
  %58 = add i32 %57, 2
  %59 = call ptr @proto_tree_add_item(ptr noundef %54, i32 noundef %55, ptr noundef %56, i32 noundef %58, i32 noundef 1, i32 noundef 0)
  %60 = load ptr, ptr %15, align 8
  %61 = load i32, ptr @hf_pcep_subobj_label_control_reserved, align 4
  %62 = load ptr, ptr %10, align 8
  %63 = load i32, ptr %11, align 4
  %64 = add i32 %63, 2
  %65 = call ptr @proto_tree_add_item(ptr noundef %60, i32 noundef %61, ptr noundef %62, i32 noundef %64, i32 noundef 1, i32 noundef 0)
  %66 = load ptr, ptr %15, align 8
  %67 = load i32, ptr @hf_pcep_subobj_label_control_c_type, align 4
  %68 = load ptr, ptr %10, align 8
  %69 = load i32, ptr %11, align 4
  %70 = add i32 %69, 3
  %71 = call ptr @proto_tree_add_item(ptr noundef %66, i32 noundef %67, ptr noundef %68, i32 noundef %70, i32 noundef 1, i32 noundef 0)
  %72 = load ptr, ptr %15, align 8
  %73 = load i32, ptr @hf_pcep_subobj_label_control_label, align 4
  %74 = load ptr, ptr %10, align 8
  %75 = load i32, ptr %11, align 4
  %76 = add i32 %75, 4
  %77 = load i32, ptr %14, align 4
  %78 = sub i32 %77, 4
  %79 = call ptr @proto_tree_add_item(ptr noundef %72, i32 noundef %73, ptr noundef %74, i32 noundef %76, i32 noundef %78, i32 noundef 0)
  br label %131

80:                                               ; preds = %35, %35
  %81 = load ptr, ptr %15, align 8
  %82 = load i32, ptr @hf_PCEPF_SUBOBJ, align 4
  %83 = load ptr, ptr %10, align 8
  %84 = load i32, ptr %11, align 4
  %85 = call ptr @proto_tree_add_item(ptr noundef %81, i32 noundef %82, ptr noundef %83, i32 noundef %84, i32 noundef 1, i32 noundef 0)
  %86 = load ptr, ptr %15, align 8
  %87 = load i32, ptr @hf_pcep_subobj_label_control_length, align 4
  %88 = load ptr, ptr %10, align 8
  %89 = load i32, ptr %11, align 4
  %90 = add i32 %89, 1
  %91 = call ptr @proto_tree_add_item(ptr noundef %86, i32 noundef %87, ptr noundef %88, i32 noundef %90, i32 noundef 1, i32 noundef 0)
  %92 = load ptr, ptr %15, align 8
  %93 = load i32, ptr @hf_pcep_subobj_label_control_u, align 4
  %94 = load ptr, ptr %10, align 8
  %95 = load i32, ptr %11, align 4
  %96 = add i32 %95, 2
  %97 = call ptr @proto_tree_add_item(ptr noundef %92, i32 noundef %93, ptr noundef %94, i32 noundef %96, i32 noundef 1, i32 noundef 0)
  %98 = load ptr, ptr %15, align 8
  %99 = load i32, ptr @hf_pcep_subobj_label_control_flags, align 4
  %100 = load ptr, ptr %10, align 8
  %101 = load i32, ptr %11, align 4
  %102 = add i32 %101, 2
  %103 = call ptr @proto_tree_add_item(ptr noundef %98, i32 noundef %99, ptr noundef %100, i32 noundef %102, i32 noundef 1, i32 noundef 0)
  store ptr %103, ptr %17, align 8
  %104 = load ptr, ptr %17, align 8
  %105 = load i32, ptr %13, align 4
  %106 = call ptr @proto_item_add_subtree(ptr noundef %104, i32 noundef %105)
  store ptr %106, ptr %16, align 8
  %107 = load ptr, ptr %16, align 8
  %108 = load i32, ptr @hf_pcep_subobj_label_flags_gl, align 4
  %109 = load ptr, ptr %10, align 8
  %110 = load i32, ptr %11, align 4
  %111 = add i32 %110, 2
  %112 = call ptr @proto_tree_add_item(ptr noundef %107, i32 noundef %108, ptr noundef %109, i32 noundef %111, i32 noundef 1, i32 noundef 0)
  %113 = load ptr, ptr %15, align 8
  %114 = load i32, ptr @hf_pcep_subobj_label_control_c_type, align 4
  %115 = load ptr, ptr %10, align 8
  %116 = load i32, ptr %11, align 4
  %117 = add i32 %116, 3
  %118 = call ptr @proto_tree_add_item(ptr noundef %113, i32 noundef %114, ptr noundef %115, i32 noundef %117, i32 noundef 1, i32 noundef 0)
  %119 = load ptr, ptr %15, align 8
  %120 = load i32, ptr @hf_pcep_subobj_label_control_label, align 4
  %121 = load ptr, ptr %10, align 8
  %122 = load i32, ptr %11, align 4
  %123 = add i32 %122, 4
  %124 = load i32, ptr %14, align 4
  %125 = sub i32 %124, 4
  %126 = call ptr @proto_tree_add_item(ptr noundef %119, i32 noundef %120, ptr noundef %121, i32 noundef %123, i32 noundef %125, i32 noundef 0)
  br label %131

127:                                              ; preds = %35
  %128 = load ptr, ptr %9, align 8
  %129 = load ptr, ptr %17, align 8
  %130 = call ptr (ptr, ptr, ptr, ptr, ...) @expert_add_info_format(ptr noundef %128, ptr noundef %129, ptr noundef @ei_pcep_non_defined_subobject, ptr noundef @.str.723)
  br label %131

131:                                              ; preds = %127, %80, %37
  store i32 0, ptr %18, align 4
  br label %132

132:                                              ; preds = %131, %30
  call void @llvm.lifetime.end.p0(i64 8, ptr %17) #4
  call void @llvm.lifetime.end.p0(i64 8, ptr %16) #4
  call void @llvm.lifetime.end.p0(i64 8, ptr %15) #4
  %133 = load i32, ptr %18, align 4
  switch i32 %133, label %135 [
    i32 0, label %134
    i32 1, label %134
  ]

134:                                              ; preds = %132, %132
  ret void

135:                                              ; preds = %132
  unreachable
}