; Function Attrs: null_pointer_is_valid sspstrong uwtable
define internal fastcc void @dissect_subobj_label_control(ptr noundef %0, ptr noundef %1, ptr noundef %2, i32 noundef %3, i32 noundef %4, i32 noundef %5, i32 noundef range(i32 2, 256) %6) unnamed_addr #0 {
  %8 = load i32, ptr @hf_PCEPF_SUBOBJ_LABEL_CONTROL, align 4
  %9 = tail call ptr @proto_tree_add_item(ptr noundef %0, i32 noundef %8, ptr noundef %2, i32 noundef %3, i32 noundef %6, i32 noundef 0)
  %10 = tail call ptr @proto_item_add_subtree(ptr noundef %9, i32 noundef %5)
  %11 = icmp samesign ult i32 %6, 5
  br i1 %11, label %12, label %14

12:                                               ; preds = %7
  %13 = tail call ptr (ptr, ptr, ptr, ptr, ...) @expert_add_info_format(ptr noundef %1, ptr noundef %9, ptr noundef nonnull @ei_pcep_subobject_bad_length, ptr noundef nonnull @.str.1158, i32 noundef %6)
  br label %58

14:                                               ; preds = %7
  switch i32 %4, label %56 [
    i32 7, label %15
    i32 29, label %15
    i32 8, label %35
    i32 30, label %35
  ]

15:                                               ; preds = %14, %14
  %16 = load i32, ptr @hf_pcep_subobj_label_control_l, align 4
  %17 = tail call ptr @proto_tree_add_item(ptr noundef %10, i32 noundef %16, ptr noundef %2, i32 noundef %3, i32 noundef 1, i32 noundef 0)
  %18 = load i32, ptr @hf_PCEPF_SUBOBJ_7F, align 4
  %19 = tail call ptr @proto_tree_add_item(ptr noundef %10, i32 noundef %18, ptr noundef %2, i32 noundef %3, i32 noundef 1, i32 noundef 0)
  %20 = load i32, ptr @hf_pcep_subobj_label_control_length, align 4
  %21 = add i32 %3, 1
  %22 = tail call ptr @proto_tree_add_item(ptr noundef %10, i32 noundef %20, ptr noundef %2, i32 noundef %21, i32 noundef 1, i32 noundef 0)
  %23 = load i32, ptr @hf_pcep_subobj_label_control_u, align 4
  %24 = add i32 %3, 2
  %25 = tail call ptr @proto_tree_add_item(ptr noundef %10, i32 noundef %23, ptr noundef %2, i32 noundef %24, i32 noundef 1, i32 noundef 0)
  %26 = load i32, ptr @hf_pcep_subobj_label_control_reserved, align 4
  %27 = tail call ptr @proto_tree_add_item(ptr noundef %10, i32 noundef %26, ptr noundef %2, i32 noundef %24, i32 noundef 1, i32 noundef 0)
  %28 = load i32, ptr @hf_pcep_subobj_label_control_c_type, align 4
  %29 = add i32 %3, 3
  %30 = tail call ptr @proto_tree_add_item(ptr noundef %10, i32 noundef %28, ptr noundef %2, i32 noundef %29, i32 noundef 1, i32 noundef 0)
  %31 = load i32, ptr @hf_pcep_subobj_label_control_label, align 4
  %32 = add i32 %3, 4
  %33 = add nsw i32 %6, -4
  %34 = tail call ptr @proto_tree_add_item(ptr noundef %10, i32 noundef %31, ptr noundef %2, i32 noundef %32, i32 noundef %33, i32 noundef 0)
  br label %58

35:                                               ; preds = %14, %14
  %36 = load i32, ptr @hf_PCEPF_SUBOBJ, align 4
  %37 = tail call ptr @proto_tree_add_item(ptr noundef %10, i32 noundef %36, ptr noundef %2, i32 noundef %3, i32 noundef 1, i32 noundef 0)
  %38 = load i32, ptr @hf_pcep_subobj_label_control_length, align 4
  %39 = add i32 %3, 1
  %40 = tail call ptr @proto_tree_add_item(ptr noundef %10, i32 noundef %38, ptr noundef %2, i32 noundef %39, i32 noundef 1, i32 noundef 0)
  %41 = load i32, ptr @hf_pcep_subobj_label_control_u, align 4
  %42 = add i32 %3, 2
  %43 = tail call ptr @proto_tree_add_item(ptr noundef %10, i32 noundef %41, ptr noundef %2, i32 noundef %42, i32 noundef 1, i32 noundef 0)
  %44 = load i32, ptr @hf_pcep_subobj_label_control_flags, align 4
  %45 = tail call ptr @proto_tree_add_item(ptr noundef %10, i32 noundef %44, ptr noundef %2, i32 noundef %42, i32 noundef 1, i32 noundef 0)
  %46 = tail call ptr @proto_item_add_subtree(ptr noundef %45, i32 noundef %5)
  %47 = load i32, ptr @hf_pcep_subobj_label_flags_gl, align 4
  %48 = tail call ptr @proto_tree_add_item(ptr noundef %46, i32 noundef %47, ptr noundef %2, i32 noundef %42, i32 noundef 1, i32 noundef 0)
  %49 = load i32, ptr @hf_pcep_subobj_label_control_c_type, align 4
  %50 = add i32 %3, 3
  %51 = tail call ptr @proto_tree_add_item(ptr noundef %10, i32 noundef %49, ptr noundef %2, i32 noundef %50, i32 noundef 1, i32 noundef 0)
  %52 = load i32, ptr @hf_pcep_subobj_label_control_label, align 4
  %53 = add i32 %3, 4
  %54 = add nsw i32 %6, -4
  %55 = tail call ptr @proto_tree_add_item(ptr noundef %10, i32 noundef %52, ptr noundef %2, i32 noundef %53, i32 noundef %54, i32 noundef 0)
  br label %58

56:                                               ; preds = %14
  %57 = tail call ptr (ptr, ptr, ptr, ptr, ...) @expert_add_info_format(ptr noundef %1, ptr noundef %9, ptr noundef nonnull @ei_pcep_non_defined_subobject, ptr noundef nonnull @.str.723)
  br label %58

58:                                               ; preds = %15, %35, %56, %12
  ret void
}